; Function Attrs: null_pointer_is_valid sspstrong uwtable
define internal i32 @dissect_ldp(ptr noundef %0, ptr noundef %1, ptr noundef %2, ptr readnone captures(none) %3) #0 {
  %5 = tail call i32 @tvb_captured_length(ptr noundef %0)
  %6 = icmp ult i32 %5, 2
  br i1 %6, label %11, label %7

7:                                                ; preds = %4
  %8 = tail call zeroext i16 @tvb_get_ntohs(ptr noundef %0, i32 noundef 0)
  %.not = icmp eq i16 %8, 1
  br i1 %.not, label %9, label %11

9:                                                ; preds = %7
  tail call fastcc void @dissect_ldp_pdu(ptr noundef %0, ptr noundef %1, ptr noundef %2)
  %10 = tail call i32 @tvb_captured_length(ptr noundef %0)
  br label %11

11:                                               ; preds = %7, %4, %9
  %.0 = phi i32 [ %10, %9 ], [ 0, %4 ], [ 0, %7 ]
  ret i32 %.0
}